; Function Attrs: mustprogress nofree norecurse nosync nounwind willreturn memory(read, argmem: readwrite, inaccessiblemem: none) uwtable
define internal void @_ZZL31ShowExampleAppConstrainedResizePbEN17CustomConstraints11AspectRatioEP21ImGuiSizeCallbackData(ptr noundef captures(none) initializes((28, 32)) %0) #29 align 2 {
  %2 = load ptr, ptr %0, align 8, !tbaa !555
  %3 = load float, ptr %2, align 4, !tbaa !53
  %4 = getelementptr inbounds nuw i8, ptr %0, i64 24
  %5 = load float, ptr %4, align 8, !tbaa !557
  %6 = fdiv float %5, %3
  %7 = fptosi float %6 to i32
  %8 = sitofp i32 %7 to float
  %9 = getelementptr inbounds nuw i8, ptr %0, i64 28
  store float %8, ptr %9, align 4, !tbaa !558
  ret void
}